target datalayout = "e-m:e-p270:32:32-p271:32:32-p272:64:64-i64:64-i128:128-f80:128-n8:16:32:64-S128"
target triple = "x86_64-pc-linux-gnu"

%"class.icu_77::TimeUnitFormat" = type <{ %"class.icu_77::MeasureFormat", [7 x ptr], i32, [4 x i8] }>
%"class.icu_77::MeasureFormat" = type { %"class.icu_77::Format", ptr, ptr, ptr, i32, ptr }
%"class.icu_77::Format" = type { %"class.icu_77::UObject", ptr, ptr }
%"class.icu_77::UObject" = type { ptr }
%"class.icu_77::Hashtable" = type { ptr, %struct.UHashtable }
%struct.UHashtable = type { ptr, ptr, ptr, ptr, ptr, ptr, i32, i32, i32, i32, float, float, i8, i8 }

; Function Attrs: inlinehint mustprogress nounwind uwtable
define linkonce_odr void @_ZN6icu_779HashtableD2Ev(ptr noundef nonnull align 8 dereferenceable(88) %0) unnamed_addr #2 comdat align 2 personality ptr @__gxx_personality_v0 {
  %2 = alloca ptr, align 8
  store ptr %0, ptr %2, align 8, !tbaa !31
  %3 = load ptr, ptr %2, align 8
  %4 = getelementptr inbounds nuw %"class.icu_77::Hashtable", ptr %3, i32 0, i32 0
  %5 = load ptr, ptr %4, align 8, !tbaa !61
  %6 = icmp ne ptr %5, null
  br i1 %6, label %7, label %11

7:                                                ; preds = %1
  %8 = getelementptr inbounds nuw %"class.icu_77::Hashtable", ptr %3, i32 0, i32 0
  %9 = load ptr, ptr %8, align 8, !tbaa !61
  invoke void @uhash_close_77(ptr noundef %9)
          to label %10 unwind label %12

10:                                               ; preds = %7
  br label %11

11:                                               ; preds = %10, %1
  ret void

12:                                               ; preds = %7
  %13 = landingpad { ptr, i32 }
          catch ptr null
  %14 = extractvalue { ptr, i32 } %13, 0
  call void @__clang_call_terminate(ptr %14) #13
  unreachable
}

; Function Attrs: inlinehint mustprogress nounwind uwtable
define internal noundef signext i8 @_ZL9U_SUCCESS10UErrorCode(i32 noundef %0) #2 {
  %2 = alloca i32, align 4
  store i32 %0, ptr %2, align 4, !tbaa !15
  %3 = load i32, ptr %2, align 4, !tbaa !15
  %4 = icmp sle i32 %3, 0
  %5 = zext i1 %4 to i8
  ret i8 %5
}

; Function Attrs: mustprogress uwtable
define void @_ZN6icu_7714TimeUnitFormatC2ERKS0_(ptr noundef nonnull align 8 dereferenceable(124) %0, ptr noundef nonnull align 8 dereferenceable(124) %1) unnamed_addr #1 align 2 personality ptr @__gxx_personality_v0 {
  %3 = alloca ptr, align 8
  %4 = alloca ptr, align 8
  %5 = alloca i32, align 4
  %6 = alloca i32, align 4
  %7 = alloca ptr, align 8
  %8 = alloca i32, align 4
  store ptr %0, ptr %3, align 8, !tbaa !23
  store ptr %1, ptr %4, align 8, !tbaa !23
  %9 = load ptr, ptr %3, align 8
  %10 = load ptr, ptr %4, align 8, !tbaa !23
  call void @_ZN6icu_7713MeasureFormatC2ERKS0_(ptr noundef nonnull align 8 dereferenceable(64) %9, ptr noundef nonnull align 8 dereferenceable(64) %10)
  store ptr getelementptr inbounds inrange(-16, 64) ({ [10 x ptr] }, ptr @_ZTVN6icu_7714TimeUnitFormatE, i32 0, i32 0, i32 2), ptr %9, align 8, !tbaa !25
  %11 = getelementptr inbounds nuw %"class.icu_77::TimeUnitFormat", ptr %9, i32 0, i32 2
  %12 = load ptr, ptr %4, align 8, !tbaa !23
  %13 = getelementptr inbounds nuw %"class.icu_77::TimeUnitFormat", ptr %12, i32 0, i32 2
  %14 = load i32, ptr %13, align 8, !tbaa !35
  store i32 %14, ptr %11, align 8, !tbaa !35
  call void @llvm.lifetime.start.p0(i64 4, ptr %5) #11
  store i32 0, ptr %5, align 4, !tbaa !29
  br label %15

15:                                               ; preds = %61, %2
  %16 = load i32, ptr %5, align 4, !tbaa !29
  %17 = icmp slt i32 %16, 7
  br i1 %17, label %19, label %18

18:                                               ; preds = %15
  call void @llvm.lifetime.end.p0(i64 4, ptr %5) #11
  br label %64

19:                                               ; preds = %15
  call void @llvm.lifetime.start.p0(i64 4, ptr %6) #11
  store i32 0, ptr %6, align 4, !tbaa !15
  %20 = invoke noundef ptr @_ZN6icu_7714TimeUnitFormat8initHashER10UErrorCode(ptr noundef nonnull align 8 dereferenceable(124) %9, ptr noundef nonnull align 4 dereferenceable(4) %6)
          to label %21 unwind label %43

21:                                               ; preds = %19
  %22 = getelementptr inbounds nuw %"class.icu_77::TimeUnitFormat", ptr %9, i32 0, i32 1
  %23 = load i32, ptr %5, align 4, !tbaa !29
  %24 = zext i32 %23 to i64
  %25 = getelementptr inbounds nuw [7 x ptr], ptr %22, i64 0, i64 %24
  store ptr %20, ptr %25, align 8, !tbaa !31
  %26 = load i32, ptr %6, align 4, !tbaa !15
  %27 = invoke noundef signext i8 @_ZL9U_SUCCESS10UErrorCode(i32 noundef %26)
          to label %28 unwind label %43

28:                                               ; preds = %21
  %29 = icmp ne i8 %27, 0
  br i1 %29, label %30, label %47

30:                                               ; preds = %28
  %31 = load ptr, ptr %4, align 8, !tbaa !23
  %32 = getelementptr inbounds nuw %"class.icu_77::TimeUnitFormat", ptr %31, i32 0, i32 1
  %33 = load i32, ptr %5, align 4, !tbaa !29
  %34 = zext i32 %33 to i64
  %35 = getelementptr inbounds nuw [7 x ptr], ptr %32, i64 0, i64 %34
  %36 = load ptr, ptr %35, align 8, !tbaa !31
  %37 = getelementptr inbounds nuw %"class.icu_77::TimeUnitFormat", ptr %9, i32 0, i32 1
  %38 = load i32, ptr %5, align 4, !tbaa !29
  %39 = zext i32 %38 to i64
  %40 = getelementptr inbounds nuw [7 x ptr], ptr %37, i64 0, i64 %39
  %41 = load ptr, ptr %40, align 8, !tbaa !31
  invoke void @_ZN6icu_7714TimeUnitFormat8copyHashEPKNS_9HashtableEPS1_R10UErrorCode(ptr noundef nonnull align 8 dereferenceable(124) %9, ptr noundef %36, ptr noundef %41, ptr noundef nonnull align 4 dereferenceable(4) %6)
          to label %42 unwind label %43

42:                                               ; preds = %30
  br label %60

43:                                               ; preds = %30, %21, %19
  %44 = landingpad { ptr, i32 }
          cleanup
  %45 = extractvalue { ptr, i32 } %44, 0
  store ptr %45, ptr %7, align 8
  %46 = extractvalue { ptr, i32 } %44, 1
  store i32 %46, ptr %8, align 4
  call void @llvm.lifetime.end.p0(i64 4, ptr %6) #11
  call void @llvm.lifetime.end.p0(i64 4, ptr %5) #11
  call void @_ZN6icu_7713MeasureFormatD2Ev(ptr noundef nonnull align 8 dereferenceable(64) %9) #11
  br label %65

47:                                               ; preds = %28
  %48 = getelementptr inbounds nuw %"class.icu_77::TimeUnitFormat", ptr %9, i32 0, i32 1
  %49 = load i32, ptr %5, align 4, !tbaa !29
  %50 = zext i32 %49 to i64
  %51 = getelementptr inbounds nuw [7 x ptr], ptr %48, i64 0, i64 %50
  %52 = load ptr, ptr %51, align 8, !tbaa !31
  %53 = icmp eq ptr %52, null
  br i1 %53, label %55, label %54

54:                                               ; preds = %47
  call void @_ZN6icu_779HashtableD2Ev(ptr noundef nonnull align 8 dereferenceable(88) %52) #11
  call void @_ZN6icu_777UMemorydlEPv(ptr noundef %52) #11
  br label %55

55:                                               ; preds = %54, %47
  %56 = getelementptr inbounds nuw %"class.icu_77::TimeUnitFormat", ptr %9, i32 0, i32 1
  %57 = load i32, ptr %5, align 4, !tbaa !29
  %58 = zext i32 %57 to i64
  %59 = getelementptr inbounds nuw [7 x ptr], ptr %56, i64 0, i64 %58
  store ptr null, ptr %59, align 8, !tbaa !31
  br label %60

60:                                               ; preds = %55, %42
  call void @llvm.lifetime.end.p0(i64 4, ptr %6) #11
  br label %61

61:                                               ; preds = %60
  %62 = load i32, ptr %5, align 4, !tbaa !29
  %63 = add nsw i32 %62, 1
  store i32 %63, ptr %5, align 4, !tbaa !29
  br label %15, !llvm.loop !48

64:                                               ; preds = %18
  ret void

65:                                               ; preds = %43
  %66 = load ptr, ptr %7, align 8
  %67 = load i32, ptr %8, align 4
  %68 = insertvalue { ptr, i32 } poison, ptr %66, 0
  %69 = insertvalue { ptr, i32 } %68, i32 %67, 1
  resume { ptr, i32 } %69
}