; Function Attrs: mustprogress uwtable
define void @_ZN6icu_7714TimeUnitFormatC2ERKS0_(ptr noundef nonnull align 8 dereferenceable(124) %0, ptr noundef nonnull align 8 dereferenceable(124) %1) unnamed_addr #1 align 2 personality ptr @__gxx_personality_v0 {
  %3 = alloca i32, align 4
  tail call void @_ZN6icu_7713MeasureFormatC2ERKS0_(ptr noundef nonnull align 8 dereferenceable(64) %0, ptr noundef nonnull align 8 dereferenceable(64) %1)
  store ptr getelementptr inbounds nuw inrange(-16, 64) (i8, ptr @_ZTVN6icu_7714TimeUnitFormatE, i64 16), ptr %0, align 8, !tbaa !15
  %4 = getelementptr inbounds nuw i8, ptr %0, i64 120
  %5 = getelementptr inbounds nuw i8, ptr %1, i64 120
  %6 = load i32, ptr %5, align 8, !tbaa !19
  store i32 %6, ptr %4, align 8, !tbaa !19
  %7 = getelementptr inbounds nuw i8, ptr %0, i64 64
  %8 = getelementptr inbounds nuw i8, ptr %1, i64 64
  br label %10

9:                                                ; preds = %30
  ret void

10:                                               ; preds = %2, %30
  %indvars.iv = phi i64 [ 0, %2 ], [ %indvars.iv.next, %30 ]
  call void @llvm.lifetime.start.p0(i64 4, ptr nonnull %3) #16
  store i32 0, ptr %3, align 4, !tbaa !13
  %11 = invoke noundef ptr @_ZN6icu_7714TimeUnitFormat8initHashER10UErrorCode(ptr nonnull align 8 poison, ptr noundef nonnull align 4 dereferenceable(4) %3)
          to label %12 unwind label %19

12:                                               ; preds = %10
  %13 = getelementptr inbounds nuw [7 x ptr], ptr %7, i64 0, i64 %indvars.iv
  store ptr %11, ptr %13, align 8, !tbaa !17
  %14 = load i32, ptr %3, align 4, !tbaa !13
  %15 = icmp sgt i32 %14, 0
  br i1 %15, label %21, label %16

16:                                               ; preds = %12
  %17 = getelementptr inbounds nuw [7 x ptr], ptr %8, i64 0, i64 %indvars.iv
  %18 = load ptr, ptr %17, align 8, !tbaa !17
  invoke void @_ZN6icu_7714TimeUnitFormat8copyHashEPKNS_9HashtableEPS1_R10UErrorCode(ptr nonnull align 8 poison, ptr noundef %18, ptr noundef %11, ptr noundef nonnull align 4 dereferenceable(4) %3)
          to label %30 unwind label %19

19:                                               ; preds = %16, %10
  %20 = landingpad { ptr, i32 }
          cleanup
  call void @llvm.lifetime.end.p0(i64 4, ptr nonnull %3) #16
  call void @_ZN6icu_7713MeasureFormatD2Ev(ptr noundef nonnull align 8 dereferenceable(64) %0) #16
  resume { ptr, i32 } %20

21:                                               ; preds = %12
  %22 = icmp eq ptr %11, null
  br i1 %22, label %29, label %23

23:                                               ; preds = %21
  %24 = load ptr, ptr %11, align 8, !tbaa !31
  %.not.i = icmp eq ptr %24, null
  br i1 %.not.i, label %_ZN6icu_779HashtableD2Ev.exit, label %25

25:                                               ; preds = %23
  invoke void @uhash_close_77(ptr noundef nonnull %24)
          to label %_ZN6icu_779HashtableD2Ev.exit unwind label %26

26:                                               ; preds = %25
  %27 = landingpad { ptr, i32 }
          catch ptr null
  %28 = extractvalue { ptr, i32 } %27, 0
  call void @__clang_call_terminate(ptr %28) #18
  unreachable

_ZN6icu_779HashtableD2Ev.exit:                    ; preds = %23, %25
  call void @_ZN6icu_777UMemorydlEPv(ptr noundef nonnull %11) #16
  br label %29

29:                                               ; preds = %_ZN6icu_779HashtableD2Ev.exit, %21
  store ptr null, ptr %13, align 8, !tbaa !17
  br label %30

30:                                               ; preds = %16, %29
  call void @llvm.lifetime.end.p0(i64 4, ptr nonnull %3) #16
  %indvars.iv.next = add nuw nsw i64 %indvars.iv, 1
  %exitcond.not = icmp eq i64 %indvars.iv.next, 7
  br i1 %exitcond.not, label %9, label %10, !llvm.loop !37
}